target datalayout = "e-m:e-p270:32:32-p271:32:32-p272:64:64-i64:64-i128:128-f80:128-n8:16:32:64-S128"
target triple = "x86_64-pc-linux-gnu"

%"class.google::protobuf::internal::LogMessage" = type { i32, ptr, i32, %"class.std::__cxx11::basic_string" }
%"class.std::__cxx11::basic_string" = type { %"struct.std::__cxx11::basic_string<char>::_Alloc_hider", i64, %union.anon }
%"struct.std::__cxx11::basic_string<char>::_Alloc_hider" = type { ptr }
%union.anon = type { i64, [8 x i8] }
%"class.google::protobuf::internal::LogFinisher" = type { i8 }
%"class.google::protobuf::strings::ByteSource" = type { ptr }
%"class.google::protobuf::strings::LimitByteSource" = type { %"class.google::protobuf::strings::ByteSource", ptr, i64 }

@.str = private unnamed_addr constant [149 x i8] c"generated/home/dtcxzyw/WorkSpace/Projects/compilers/llvm-opt-benchmark/bench/opencv/opencv/3rdparty/protobuf/src/google/protobuf/stubs/bytestream.cc\00", align 1
@.str.9 = private unnamed_addr constant [32 x i8] c"CHECK failed: (n) <= (limit_): \00", align 1

; Function Attrs: mustprogress uwtable
define hidden void @_ZN6google8protobuf7strings15LimitByteSource6CopyToEPNS1_8ByteSinkEm(ptr noundef nonnull align 8 dereferenceable(24) %0, ptr noundef %1, i64 noundef %2) unnamed_addr #4 align 2 personality ptr @__gxx_personality_v0 {
  %4 = alloca ptr, align 8
  %5 = alloca ptr, align 8
  %6 = alloca i64, align 8
  %7 = alloca %"class.google::protobuf::internal::LogMessage", align 8
  %8 = alloca i1, align 1
  %9 = alloca i1, align 1
  %10 = alloca ptr, align 8
  %11 = alloca i32, align 4
  %12 = alloca %"class.google::protobuf::internal::LogFinisher", align 1
  store ptr %0, ptr %4, align 8, !tbaa !57
  store ptr %1, ptr %5, align 8, !tbaa !8
  store i64 %2, ptr %6, align 8, !tbaa !10
  %13 = load ptr, ptr %4, align 8
  br label %14

14:                                               ; preds = %31, %3
  br i1 false, label %15, label %47

15:                                               ; preds = %14
  %16 = load i64, ptr %6, align 8, !tbaa !10
  %17 = getelementptr inbounds nuw %"class.google::protobuf::strings::LimitByteSource", ptr %13, i32 0, i32 2
  %18 = load i64, ptr %17, align 8, !tbaa !62
  %19 = icmp ule i64 %16, %18
  store i1 false, ptr %8, align 1
  store i1 false, ptr %9, align 1
  call void @llvm.lifetime.start.p0(i64 1, ptr %12) #3
  br i1 %19, label %20, label %21

20:                                               ; preds = %15
  br label %25

21:                                               ; preds = %15
  call void @llvm.lifetime.start.p0(i64 56, ptr %7) #3
  store i1 true, ptr %8, align 1
  call void @_ZN6google8protobuf8internal10LogMessageC1ENS0_8LogLevelEPKci(ptr noundef nonnull align 8 dereferenceable(56) %7, i32 noundef 3, ptr noundef @.str, i32 noundef 187)
  store i1 true, ptr %9, align 1
  %22 = invoke noundef nonnull align 8 dereferenceable(56) ptr @_ZN6google8protobuf8internal10LogMessagelsEPKc(ptr noundef nonnull align 8 dereferenceable(56) %7, ptr noundef @.str.9)
          to label %23 unwind label %32

23:                                               ; preds = %21
  invoke void @_ZN6google8protobuf8internal11LogFinisheraSERNS1_10LogMessageE(ptr noundef nonnull align 1 dereferenceable(1) %12, ptr noundef nonnull align 8 dereferenceable(56) %22)
          to label %24 unwind label %36

24:                                               ; preds = %23
  br label %25

25:                                               ; preds = %24, %20
  call void @llvm.lifetime.end.p0(i64 1, ptr %12) #3
  %26 = load i1, ptr %9, align 1
  br i1 %26, label %27, label %28

27:                                               ; preds = %25
  call void @_ZN6google8protobuf8internal10LogMessageD1Ev(ptr noundef nonnull align 8 dereferenceable(56) %7) #3
  br label %28

28:                                               ; preds = %27, %25
  %29 = load i1, ptr %8, align 1
  br i1 %29, label %30, label %31

30:                                               ; preds = %28
  call void @llvm.lifetime.end.p0(i64 56, ptr %7) #3
  br label %31

31:                                               ; preds = %30, %28
  br label %14, !llvm.loop !64

32:                                               ; preds = %21
  %33 = landingpad { ptr, i32 }
          cleanup
  %34 = extractvalue { ptr, i32 } %33, 0
  store ptr %34, ptr %10, align 8
  %35 = extractvalue { ptr, i32 } %33, 1
  store i32 %35, ptr %11, align 4
  br label %40

36:                                               ; preds = %23
  %37 = landingpad { ptr, i32 }
          cleanup
  %38 = extractvalue { ptr, i32 } %37, 0
  store ptr %38, ptr %10, align 8
  %39 = extractvalue { ptr, i32 } %37, 1
  store i32 %39, ptr %11, align 4
  call void @llvm.lifetime.end.p0(i64 1, ptr %12) #3
  br label %40

40:                                               ; preds = %36, %32
  %41 = load i1, ptr %9, align 1
  br i1 %41, label %42, label %43

42:                                               ; preds = %40
  call void @_ZN6google8protobuf8internal10LogMessageD1Ev(ptr noundef nonnull align 8 dereferenceable(56) %7) #3
  br label %43

43:                                               ; preds = %42, %40
  %44 = load i1, ptr %8, align 1
  br i1 %44, label %45, label %46

45:                                               ; preds = %43
  call void @llvm.lifetime.end.p0(i64 56, ptr %7) #3
  br label %46

46:                                               ; preds = %45, %43
  br label %59

47:                                               ; preds = %14
  %48 = getelementptr inbounds nuw %"class.google::protobuf::strings::LimitByteSource", ptr %13, i32 0, i32 1
  %49 = load ptr, ptr %48, align 8, !tbaa !59
  %50 = load ptr, ptr %5, align 8, !tbaa !8
  %51 = load i64, ptr %6, align 8, !tbaa !10
  %52 = load ptr, ptr %49, align 8, !tbaa !12
  %53 = getelementptr inbounds ptr, ptr %52, i64 5
  %54 = load ptr, ptr %53, align 8
  call void %54(ptr noundef nonnull align 8 dereferenceable(8) %49, ptr noundef %50, i64 noundef %51)
  %55 = load i64, ptr %6, align 8, !tbaa !10
  %56 = getelementptr inbounds nuw %"class.google::protobuf::strings::LimitByteSource", ptr %13, i32 0, i32 2
  %57 = load i64, ptr %56, align 8, !tbaa !62
  %58 = sub i64 %57, %55
  store i64 %58, ptr %56, align 8, !tbaa !62
  ret void

59:                                               ; preds = %46
  %60 = load ptr, ptr %10, align 8
  %61 = load i32, ptr %11, align 4
  %62 = insertvalue { ptr, i32 } poison, ptr %60, 0
  %63 = insertvalue { ptr, i32 } %62, i32 %61, 1
  resume { ptr, i32 } %63
}